; Function Attrs: mustprogress uwtable
define noundef zeroext i1 @_ZN17grpc_event_engine12experimental18ThreadyEventEngine6CancelENS0_11EventEngine10TaskHandleE(ptr noundef nonnull readonly align 8 captures(none) dereferenceable(40) %0, i64 %1, i64 %2) unnamed_addr #3 align 2 {
  %4 = getelementptr inbounds nuw i8, ptr %0, i64 24
  %5 = load ptr, ptr %4, align 8, !tbaa !34
  %6 = load ptr, ptr %5, align 8, !tbaa !21
  %7 = getelementptr inbounds nuw i8, ptr %6, i64 96
  %8 = load ptr, ptr %7, align 8
  %9 = tail call noundef zeroext i1 %8(ptr noundef nonnull align 8 dereferenceable(24) %5, i64 %1, i64 %2)
  ret i1 %9
}